target datalayout = "e-m:e-p270:32:32-p271:32:32-p272:64:64-i64:64-i128:128-f80:128-n8:16:32:64-S128"
target triple = "x86_64-pc-linux-gnu"

%struct.JNINativeInterface_ = type { ptr, ptr, ptr, ptr, ptr, ptr, ptr, ptr, ptr, ptr, ptr, ptr, ptr, ptr, ptr, ptr, ptr, ptr, ptr, ptr, ptr, ptr, ptr, ptr, ptr, ptr, ptr, ptr, ptr, ptr, ptr, ptr, ptr, ptr, ptr, ptr, ptr, ptr, ptr, ptr, ptr, ptr, ptr, ptr, ptr, ptr, ptr, ptr, ptr, ptr, ptr, ptr, ptr, ptr, ptr, ptr, ptr, ptr, ptr, ptr, ptr, ptr, ptr, ptr, ptr, ptr, ptr, ptr, ptr, ptr, ptr, ptr, ptr, ptr, ptr, ptr, ptr, ptr, ptr, ptr, ptr, ptr, ptr, ptr, ptr, ptr, ptr, ptr, ptr, ptr, ptr, ptr, ptr, ptr, ptr, ptr, ptr, ptr, ptr, ptr, ptr, ptr, ptr, ptr, ptr, ptr, ptr, ptr, ptr, ptr, ptr, ptr, ptr, ptr, ptr, ptr, ptr, ptr, ptr, ptr, ptr, ptr, ptr, ptr, ptr, ptr, ptr, ptr, ptr, ptr, ptr, ptr, ptr, ptr, ptr, ptr, ptr, ptr, ptr, ptr, ptr, ptr, ptr, ptr, ptr, ptr, ptr, ptr, ptr, ptr, ptr, ptr, ptr, ptr, ptr, ptr, ptr, ptr, ptr, ptr, ptr, ptr, ptr, ptr, ptr, ptr, ptr, ptr, ptr, ptr, ptr, ptr, ptr, ptr, ptr, ptr, ptr, ptr, ptr, ptr, ptr, ptr, ptr, ptr, ptr, ptr, ptr, ptr, ptr, ptr, ptr, ptr, ptr, ptr, ptr, ptr, ptr, ptr, ptr, ptr, ptr, ptr, ptr, ptr, ptr, ptr, ptr, ptr, ptr, ptr, ptr, ptr, ptr, ptr, ptr, ptr, ptr, ptr, ptr, ptr, ptr, ptr, ptr, ptr, ptr, ptr, ptr, ptr, ptr, ptr, ptr, ptr, ptr, ptr, ptr }
%struct.CK_VERSION = type { i8, i8 }
%struct.CK_INFO = type { %struct.CK_VERSION, [32 x i8], i64, [32 x i8], %struct.CK_VERSION }

@.str.8 = private unnamed_addr constant [36 x i8] c"sun/security/pkcs11/wrapper/CK_INFO\00", align 1
@.str.9 = private unnamed_addr constant [7 x i8] c"<init>\00", align 1
@.str.10 = private unnamed_addr constant [89 x i8] c"(Lsun/security/pkcs11/wrapper/CK_VERSION;[CJ[CLsun/security/pkcs11/wrapper/CK_VERSION;)V\00", align 1

; Function Attrs: nounwind uwtable
define hidden ptr @ckInfoPtrToJInfo(ptr noundef %0, ptr noundef %1) #0 {
  %3 = alloca ptr, align 8
  %4 = alloca ptr, align 8
  %5 = alloca ptr, align 8
  %6 = alloca ptr, align 8
  %7 = alloca ptr, align 8
  %8 = alloca ptr, align 8
  %9 = alloca ptr, align 8
  %10 = alloca ptr, align 8
  %11 = alloca i64, align 8
  %12 = alloca ptr, align 8
  %13 = alloca ptr, align 8
  store ptr %0, ptr %4, align 8
  store ptr %1, ptr %5, align 8
  %14 = load ptr, ptr %4, align 8
  %15 = load ptr, ptr %14, align 8
  %16 = getelementptr inbounds %struct.JNINativeInterface_, ptr %15, i32 0, i32 6
  %17 = load ptr, ptr %16, align 8
  %18 = load ptr, ptr %4, align 8
  %19 = call ptr %17(ptr noundef %18, ptr noundef @.str.8)
  store ptr %19, ptr %6, align 8
  %20 = load ptr, ptr %6, align 8
  %21 = icmp eq ptr %20, null
  br i1 %21, label %22, label %23

22:                                               ; preds = %2
  store ptr null, ptr %3, align 8
  br label %120

23:                                               ; preds = %2
  %24 = load ptr, ptr %4, align 8
  %25 = load ptr, ptr %24, align 8
  %26 = getelementptr inbounds %struct.JNINativeInterface_, ptr %25, i32 0, i32 33
  %27 = load ptr, ptr %26, align 8
  %28 = load ptr, ptr %4, align 8
  %29 = load ptr, ptr %6, align 8
  %30 = call ptr %27(ptr noundef %28, ptr noundef %29, ptr noundef @.str.9, ptr noundef @.str.10)
  store ptr %30, ptr %7, align 8
  %31 = load ptr, ptr %7, align 8
  %32 = icmp eq ptr %31, null
  br i1 %32, label %33, label %34

33:                                               ; preds = %23
  store ptr null, ptr %3, align 8
  br label %120

34:                                               ; preds = %23
  %35 = load ptr, ptr %4, align 8
  %36 = load ptr, ptr %5, align 8
  %37 = getelementptr inbounds %struct.CK_INFO, ptr %36, i32 0, i32 0
  %38 = call ptr @ckVersionPtrToJVersion(ptr noundef %35, ptr noundef %37)
  store ptr %38, ptr %9, align 8
  %39 = load ptr, ptr %9, align 8
  %40 = icmp eq ptr %39, null
  br i1 %40, label %41, label %42

41:                                               ; preds = %34
  store ptr null, ptr %3, align 8
  br label %120

42:                                               ; preds = %34
  %43 = load ptr, ptr %4, align 8
  %44 = load ptr, ptr %5, align 8
  %45 = getelementptr inbounds %struct.CK_INFO, ptr %44, i32 0, i32 1
  %46 = getelementptr inbounds [32 x i8], ptr %45, i64 0, i64 0
  %47 = call ptr @ckUTF8CharArrayToJCharArray(ptr noundef %43, ptr noundef %46, i64 noundef 32)
  store ptr %47, ptr %10, align 8
  %48 = load ptr, ptr %10, align 8
  %49 = icmp eq ptr %48, null
  br i1 %49, label %50, label %51

50:                                               ; preds = %42
  store ptr null, ptr %3, align 8
  br label %120

51:                                               ; preds = %42
  %52 = load ptr, ptr %5, align 8
  %53 = getelementptr inbounds %struct.CK_INFO, ptr %52, i32 0, i32 2
  %54 = load i64, ptr %53, align 8
  store i64 %54, ptr %11, align 8
  %55 = load ptr, ptr %4, align 8
  %56 = load ptr, ptr %5, align 8
  %57 = getelementptr inbounds %struct.CK_INFO, ptr %56, i32 0, i32 3
  %58 = getelementptr inbounds [32 x i8], ptr %57, i64 0, i64 0
  %59 = call ptr @ckUTF8CharArrayToJCharArray(ptr noundef %55, ptr noundef %58, i64 noundef 32)
  store ptr %59, ptr %12, align 8
  %60 = load ptr, ptr %12, align 8
  %61 = icmp eq ptr %60, null
  br i1 %61, label %62, label %63

62:                                               ; preds = %51
  store ptr null, ptr %3, align 8
  br label %120

63:                                               ; preds = %51
  %64 = load ptr, ptr %4, align 8
  %65 = load ptr, ptr %5, align 8
  %66 = getelementptr inbounds %struct.CK_INFO, ptr %65, i32 0, i32 4
  %67 = call ptr @ckVersionPtrToJVersion(ptr noundef %64, ptr noundef %66)
  store ptr %67, ptr %13, align 8
  %68 = load ptr, ptr %13, align 8
  %69 = icmp eq ptr %68, null
  br i1 %69, label %70, label %71

70:                                               ; preds = %63
  store ptr null, ptr %3, align 8
  br label %120

71:                                               ; preds = %63
  %72 = load ptr, ptr %4, align 8
  %73 = load ptr, ptr %72, align 8
  %74 = getelementptr inbounds %struct.JNINativeInterface_, ptr %73, i32 0, i32 28
  %75 = load ptr, ptr %74, align 8
  %76 = load ptr, ptr %4, align 8
  %77 = load ptr, ptr %6, align 8
  %78 = load ptr, ptr %7, align 8
  %79 = load ptr, ptr %9, align 8
  %80 = load ptr, ptr %10, align 8
  %81 = load i64, ptr %11, align 8
  %82 = load ptr, ptr %12, align 8
  %83 = load ptr, ptr %13, align 8
  %84 = call ptr (ptr, ptr, ptr, ...) %75(ptr noundef %76, ptr noundef %77, ptr noundef %78, ptr noundef %79, ptr noundef %80, i64 noundef %81, ptr noundef %82, ptr noundef %83)
  store ptr %84, ptr %8, align 8
  %85 = load ptr, ptr %8, align 8
  %86 = icmp eq ptr %85, null
  br i1 %86, label %87, label %88

87:                                               ; preds = %71
  store ptr null, ptr %3, align 8
  br label %120

88:                                               ; preds = %71
  %89 = load ptr, ptr %4, align 8
  %90 = load ptr, ptr %89, align 8
  %91 = getelementptr inbounds %struct.JNINativeInterface_, ptr %90, i32 0, i32 23
  %92 = load ptr, ptr %91, align 8
  %93 = load ptr, ptr %4, align 8
  %94 = load ptr, ptr %6, align 8
  call void %92(ptr noundef %93, ptr noundef %94)
  %95 = load ptr, ptr %4, align 8
  %96 = load ptr, ptr %95, align 8
  %97 = getelementptr inbounds %struct.JNINativeInterface_, ptr %96, i32 0, i32 23
  %98 = load ptr, ptr %97, align 8
  %99 = load ptr, ptr %4, align 8
  %100 = load ptr, ptr %9, align 8
  call void %98(ptr noundef %99, ptr noundef %100)
  %101 = load ptr, ptr %4, align 8
  %102 = load ptr, ptr %101, align 8
  %103 = getelementptr inbounds %struct.JNINativeInterface_, ptr %102, i32 0, i32 23
  %104 = load ptr, ptr %103, align 8
  %105 = load ptr, ptr %4, align 8
  %106 = load ptr, ptr %10, align 8
  call void %104(ptr noundef %105, ptr noundef %106)
  %107 = load ptr, ptr %4, align 8
  %108 = load ptr, ptr %107, align 8
  %109 = getelementptr inbounds %struct.JNINativeInterface_, ptr %108, i32 0, i32 23
  %110 = load ptr, ptr %109, align 8
  %111 = load ptr, ptr %4, align 8
  %112 = load ptr, ptr %12, align 8
  call void %110(ptr noundef %111, ptr noundef %112)
  %113 = load ptr, ptr %4, align 8
  %114 = load ptr, ptr %113, align 8
  %115 = getelementptr inbounds %struct.JNINativeInterface_, ptr %114, i32 0, i32 23
  %116 = load ptr, ptr %115, align 8
  %117 = load ptr, ptr %4, align 8
  %118 = load ptr, ptr %13, align 8
  call void %116(ptr noundef %117, ptr noundef %118)
  %119 = load ptr, ptr %8, align 8
  store ptr %119, ptr %3, align 8
  br label %120

120:                                              ; preds = %88, %87, %70, %62, %50, %41, %33, %22
  %121 = load ptr, ptr %3, align 8
  ret ptr %121
}