; Function Attrs: nounwind uwtable
define hidden ptr @ckInfoPtrToJInfo(ptr noundef %0, ptr noundef %1) local_unnamed_addr #1 {
  %3 = load ptr, ptr %0, align 8
  %4 = getelementptr inbounds i8, ptr %3, i64 48
  %5 = load ptr, ptr %4, align 8
  %6 = tail call ptr %5(ptr noundef nonnull %0, ptr noundef nonnull @.str.8) #7
  %7 = icmp eq ptr %6, null
  br i1 %7, label %53, label %8

8:                                                ; preds = %2
  %9 = load ptr, ptr %0, align 8
  %10 = getelementptr inbounds i8, ptr %9, i64 264
  %11 = load ptr, ptr %10, align 8
  %12 = tail call ptr %11(ptr noundef nonnull %0, ptr noundef nonnull %6, ptr noundef nonnull @.str.9, ptr noundef nonnull @.str.10) #7
  %13 = icmp eq ptr %12, null
  br i1 %13, label %53, label %14

14:                                               ; preds = %8
  %15 = tail call ptr @ckVersionPtrToJVersion(ptr noundef nonnull %0, ptr noundef %1) #7
  %16 = icmp eq ptr %15, null
  br i1 %16, label %53, label %17

17:                                               ; preds = %14
  %18 = getelementptr inbounds i8, ptr %1, i64 2
  %19 = tail call ptr @ckUTF8CharArrayToJCharArray(ptr noundef nonnull %0, ptr noundef nonnull %18, i64 noundef 32) #7
  %20 = icmp eq ptr %19, null
  br i1 %20, label %53, label %21

21:                                               ; preds = %17
  %22 = getelementptr inbounds i8, ptr %1, i64 40
  %23 = load i64, ptr %22, align 8
  %24 = getelementptr inbounds i8, ptr %1, i64 48
  %25 = tail call ptr @ckUTF8CharArrayToJCharArray(ptr noundef nonnull %0, ptr noundef nonnull %24, i64 noundef 32) #7
  %26 = icmp eq ptr %25, null
  br i1 %26, label %53, label %27

27:                                               ; preds = %21
  %28 = getelementptr inbounds i8, ptr %1, i64 80
  %29 = tail call ptr @ckVersionPtrToJVersion(ptr noundef nonnull %0, ptr noundef nonnull %28) #7
  %30 = icmp eq ptr %29, null
  br i1 %30, label %53, label %31

31:                                               ; preds = %27
  %32 = load ptr, ptr %0, align 8
  %33 = getelementptr inbounds i8, ptr %32, i64 224
  %34 = load ptr, ptr %33, align 8
  %35 = tail call ptr (ptr, ptr, ptr, ...) %34(ptr noundef nonnull %0, ptr noundef nonnull %6, ptr noundef nonnull %12, ptr noundef nonnull %15, ptr noundef nonnull %19, i64 noundef %23, ptr noundef nonnull %25, ptr noundef nonnull %29) #7
  %36 = icmp eq ptr %35, null
  br i1 %36, label %53, label %37

37:                                               ; preds = %31
  %38 = load ptr, ptr %0, align 8
  %39 = getelementptr inbounds i8, ptr %38, i64 184
  %40 = load ptr, ptr %39, align 8
  tail call void %40(ptr noundef nonnull %0, ptr noundef nonnull %6) #7
  %41 = load ptr, ptr %0, align 8
  %42 = getelementptr inbounds i8, ptr %41, i64 184
  %43 = load ptr, ptr %42, align 8
  tail call void %43(ptr noundef nonnull %0, ptr noundef nonnull %15) #7
  %44 = load ptr, ptr %0, align 8
  %45 = getelementptr inbounds i8, ptr %44, i64 184
  %46 = load ptr, ptr %45, align 8
  tail call void %46(ptr noundef nonnull %0, ptr noundef nonnull %19) #7
  %47 = load ptr, ptr %0, align 8
  %48 = getelementptr inbounds i8, ptr %47, i64 184
  %49 = load ptr, ptr %48, align 8
  tail call void %49(ptr noundef nonnull %0, ptr noundef nonnull %25) #7
  %50 = load ptr, ptr %0, align 8
  %51 = getelementptr inbounds i8, ptr %50, i64 184
  %52 = load ptr, ptr %51, align 8
  tail call void %52(ptr noundef nonnull %0, ptr noundef nonnull %29) #7
  br label %53

53:                                               ; preds = %31, %27, %21, %17, %14, %8, %2, %37
  %.0 = phi ptr [ %35, %37 ], [ null, %2 ], [ null, %8 ], [ null, %14 ], [ null, %17 ], [ null, %21 ], [ null, %27 ], [ null, %31 ]
  ret ptr %.0
}